target datalayout = "e-m:e-p270:32:32-p271:32:32-p272:64:64-i64:64-i128:128-f80:128-n8:16:32:64-S128"
target triple = "x86_64-pc-linux-gnu"

%"struct.gmx::nonbonded_verlet_t" = type { %"class.std::unique_ptr", %"class.std::unique_ptr.2", %"class.std::unique_ptr.10", %"struct.gmx::NbnxmKernelSetup", %"class.std::unique_ptr.18", %"class.std::unique_ptr.26", ptr, ptr }
%"class.std::unique_ptr" = type { %"struct.std::__uniq_ptr_data" }
%"struct.std::__uniq_ptr_data" = type { %"class.std::__uniq_ptr_impl" }
%"class.std::__uniq_ptr_impl" = type { %"class.std::tuple" }
%"class.std::tuple" = type { %"struct.std::_Tuple_impl" }
%"struct.std::_Tuple_impl" = type { %"struct.std::_Head_base.1" }
%"struct.std::_Head_base.1" = type { ptr }
%"class.std::unique_ptr.2" = type { %"struct.std::__uniq_ptr_data.3" }
%"struct.std::__uniq_ptr_data.3" = type { %"class.std::__uniq_ptr_impl.4" }
%"class.std::__uniq_ptr_impl.4" = type { %"class.std::tuple.5" }
%"class.std::tuple.5" = type { %"struct.std::_Tuple_impl.6" }
%"struct.std::_Tuple_impl.6" = type { %"struct.std::_Head_base.9" }
%"struct.std::_Head_base.9" = type { ptr }
%"class.std::unique_ptr.10" = type { %"struct.std::__uniq_ptr_data.11" }
%"struct.std::__uniq_ptr_data.11" = type { %"class.std::__uniq_ptr_impl.12" }
%"class.std::__uniq_ptr_impl.12" = type { %"class.std::tuple.13" }
%"class.std::tuple.13" = type { %"struct.std::_Tuple_impl.14" }
%"struct.std::_Tuple_impl.14" = type { %"struct.std::_Head_base.17" }
%"struct.std::_Head_base.17" = type { ptr }
%"struct.gmx::NbnxmKernelSetup" = type { i32, i32 }
%"class.std::unique_ptr.18" = type { %"struct.std::__uniq_ptr_data.19" }
%"struct.std::__uniq_ptr_data.19" = type { %"class.std::__uniq_ptr_impl.20" }
%"class.std::__uniq_ptr_impl.20" = type { %"class.std::tuple.21" }
%"class.std::tuple.21" = type { %"struct.std::_Tuple_impl.22" }
%"struct.std::_Tuple_impl.22" = type { %"struct.std::_Head_base.25" }
%"struct.std::_Head_base.25" = type { ptr }
%"class.std::unique_ptr.26" = type { %"struct.std::__uniq_ptr_data.27" }
%"struct.std::__uniq_ptr_data.27" = type { %"class.std::__uniq_ptr_impl.28" }
%"class.std::__uniq_ptr_impl.28" = type { %"class.std::tuple.29" }
%"class.std::tuple.29" = type { %"struct.std::_Tuple_impl.30" }
%"struct.std::_Tuple_impl.30" = type { %"struct.std::_Head_base.33" }
%"struct.std::_Head_base.33" = type { ptr }
%"class.gmx::PairlistSets" = type { %"struct.gmx::PairlistParams", i32, %"class.std::unique_ptr.60", %"class.std::unique_ptr.60", i64 }
%"struct.gmx::PairlistParams" = type { i32, i8, float, float, i8, i8, i32, i32, i32, i32 }
%"class.std::unique_ptr.60" = type { %"struct.std::__uniq_ptr_data.61" }
%"struct.std::__uniq_ptr_data.61" = type { %"class.std::__uniq_ptr_impl.62" }
%"class.std::__uniq_ptr_impl.62" = type { %"class.std::tuple.63" }
%"class.std::tuple.63" = type { %"struct.std::_Tuple_impl.64" }
%"struct.std::_Tuple_impl.64" = type { %"struct.std::_Head_base.67" }
%"struct.std::_Head_base.67" = type { ptr }

; Function Attrs: mustprogress nounwind uwtable
define linkonce_odr noundef nonnull align 8 dereferenceable(8) ptr @_ZNSt10_Head_baseILm0EPN3gmx12PairlistSetsELb0EE7_M_headERKS3_(ptr noundef nonnull align 8 dereferenceable(8) %0) #1 comdat align 2 {
  %2 = alloca ptr, align 8
  store ptr %0, ptr %2, align 8, !tbaa !152
  %3 = load ptr, ptr %2, align 8, !tbaa !152
  %4 = getelementptr inbounds nuw %"struct.std::_Head_base.1", ptr %3, i32 0, i32 0
  ret ptr %4
}

; Function Attrs: mustprogress nounwind uwtable
define linkonce_odr noundef nonnull align 8 dereferenceable(8) ptr @_ZNSt11_Tuple_implILm0EJPN3gmx12PairlistSetsESt14default_deleteIS1_EEE7_M_headERKS5_(ptr noundef nonnull align 8 dereferenceable(8) %0) #1 comdat align 2 {
  %2 = alloca ptr, align 8
  store ptr %0, ptr %2, align 8, !tbaa !150
  %3 = load ptr, ptr %2, align 8, !tbaa !150
  %4 = call noundef nonnull align 8 dereferenceable(8) ptr @_ZNSt10_Head_baseILm0EPN3gmx12PairlistSetsELb0EE7_M_headERKS3_(ptr noundef nonnull align 8 dereferenceable(8) %3) #17
  ret ptr %4
}

; Function Attrs: mustprogress nounwind uwtable
define linkonce_odr noundef nonnull align 8 dereferenceable(8) ptr @_ZSt12__get_helperILm0EPN3gmx12PairlistSetsEJSt14default_deleteIS1_EEERKT0_RKSt11_Tuple_implIXT_EJS5_DpT1_EE(ptr noundef nonnull align 8 dereferenceable(8) %0) #1 comdat {
  %2 = alloca ptr, align 8
  store ptr %0, ptr %2, align 8, !tbaa !150
  %3 = load ptr, ptr %2, align 8, !tbaa !150
  %4 = call noundef nonnull align 8 dereferenceable(8) ptr @_ZNSt11_Tuple_implILm0EJPN3gmx12PairlistSetsESt14default_deleteIS1_EEE7_M_headERKS5_(ptr noundef nonnull align 8 dereferenceable(8) %3) #17
  ret ptr %4
}

; Function Attrs: mustprogress nounwind uwtable
define linkonce_odr noundef nonnull align 8 dereferenceable(8) ptr @_ZSt3getILm0EJPN3gmx12PairlistSetsESt14default_deleteIS1_EEERKNSt13tuple_elementIXT_ESt5tupleIJDpT0_EEE4typeERKS9_(ptr noundef nonnull align 8 dereferenceable(8) %0) #1 comdat {
  %2 = alloca ptr, align 8
  store ptr %0, ptr %2, align 8, !tbaa !148
  %3 = load ptr, ptr %2, align 8, !tbaa !148
  %4 = call noundef nonnull align 8 dereferenceable(8) ptr @_ZSt12__get_helperILm0EPN3gmx12PairlistSetsEJSt14default_deleteIS1_EEERKT0_RKSt11_Tuple_implIXT_EJS5_DpT1_EE(ptr noundef nonnull align 8 dereferenceable(8) %3) #17
  ret ptr %4
}

; Function Attrs: mustprogress nounwind uwtable
define linkonce_odr noundef ptr @_ZNKSt15__uniq_ptr_implIN3gmx12PairlistSetsESt14default_deleteIS1_EE6_M_ptrEv(ptr noundef nonnull align 8 dereferenceable(8) %0) #1 comdat align 2 {
  %2 = alloca ptr, align 8
  store ptr %0, ptr %2, align 8, !tbaa !146
  %3 = load ptr, ptr %2, align 8
  %4 = getelementptr inbounds nuw %"class.std::__uniq_ptr_impl", ptr %3, i32 0, i32 0
  %5 = call noundef nonnull align 8 dereferenceable(8) ptr @_ZSt3getILm0EJPN3gmx12PairlistSetsESt14default_deleteIS1_EEERKNSt13tuple_elementIXT_ESt5tupleIJDpT0_EEE4typeERKS9_(ptr noundef nonnull align 8 dereferenceable(8) %4) #17
  %6 = load ptr, ptr %5, align 8, !tbaa !133
  ret ptr %6
}

; Function Attrs: mustprogress nounwind uwtable
define linkonce_odr noundef i32 @_ZNK3gmx12PairlistSets20numStepsWithPairlistEl(ptr noundef nonnull align 8 dereferenceable(64) %0, i64 noundef %1) #1 comdat align 2 {
  %3 = alloca ptr, align 8
  %4 = alloca i64, align 8
  store ptr %0, ptr %3, align 8, !tbaa !133
  store i64 %1, ptr %4, align 8, !tbaa !123
  %5 = load ptr, ptr %3, align 8
  %6 = load i64, ptr %4, align 8, !tbaa !123
  %7 = getelementptr inbounds nuw %"class.gmx::PairlistSets", ptr %5, i32 0, i32 4
  %8 = load i64, ptr %7, align 8, !tbaa !154
  %9 = sub nsw i64 %6, %8
  %10 = trunc i64 %9 to i32
  ret i32 %10
}

; Function Attrs: mustprogress nounwind uwtable
define linkonce_odr noundef ptr @_ZNKSt10unique_ptrIN3gmx12PairlistSetsESt14default_deleteIS1_EE3getEv(ptr noundef nonnull align 8 dereferenceable(8) %0) #1 comdat align 2 {
  %2 = alloca ptr, align 8
  store ptr %0, ptr %2, align 8, !tbaa !131
  %3 = load ptr, ptr %2, align 8
  %4 = getelementptr inbounds nuw %"class.std::unique_ptr", ptr %3, i32 0, i32 0
  %5 = call noundef ptr @_ZNKSt15__uniq_ptr_implIN3gmx12PairlistSetsESt14default_deleteIS1_EE6_M_ptrEv(ptr noundef nonnull align 8 dereferenceable(8) %4) #17
  ret ptr %5
}

; Function Attrs: mustprogress nounwind uwtable
define linkonce_odr noundef zeroext i1 @_ZNK3gmx12PairlistSets23isDynamicPruningStepGpuEl(ptr noundef nonnull align 8 dereferenceable(64) %0, i64 noundef %1) #1 comdat align 2 {
  %3 = alloca ptr, align 8
  %4 = alloca i64, align 8
  %5 = alloca i32, align 4
  store ptr %0, ptr %3, align 8, !tbaa !133
  store i64 %1, ptr %4, align 8, !tbaa !123
  %6 = load ptr, ptr %3, align 8
  call void @llvm.lifetime.start.p0(i64 4, ptr %5) #17
  %7 = load i64, ptr %4, align 8, !tbaa !123
  %8 = call noundef i32 @_ZNK3gmx12PairlistSets20numStepsWithPairlistEl(ptr noundef nonnull align 8 dereferenceable(64) %6, i64 noundef %7)
  store i32 %8, ptr %5, align 4, !tbaa !59
  %9 = getelementptr inbounds nuw %"class.gmx::PairlistSets", ptr %6, i32 0, i32 0
  %10 = getelementptr inbounds nuw %"struct.gmx::PairlistParams", ptr %9, i32 0, i32 5
  %11 = load i8, ptr %10, align 1, !tbaa !135, !range !47, !noundef !48
  %12 = trunc i8 %11 to i1
  br i1 %12, label %13, label %45

13:                                               ; preds = %2
  %14 = load i32, ptr %5, align 4, !tbaa !59
  %15 = icmp sgt i32 %14, 0
  br i1 %15, label %16, label %45

16:                                               ; preds = %13
  %17 = load i32, ptr %5, align 4, !tbaa !59
  %18 = getelementptr inbounds nuw %"class.gmx::PairlistSets", ptr %6, i32 0, i32 0
  %19 = getelementptr inbounds nuw %"struct.gmx::PairlistParams", ptr %18, i32 0, i32 9
  %20 = load i32, ptr %19, align 8, !tbaa !155
  %21 = icmp slt i32 %17, %20
  br i1 %21, label %22, label %45

22:                                               ; preds = %16
  %23 = load i64, ptr %4, align 8, !tbaa !123
  %24 = getelementptr inbounds nuw %"class.gmx::PairlistSets", ptr %6, i32 0, i32 0
  %25 = getelementptr inbounds nuw %"struct.gmx::PairlistParams", ptr %24, i32 0, i32 6
  %26 = load i32, ptr %25, align 4, !tbaa !156
  %27 = sext i32 %26 to i64
  %28 = srem i64 %23, %27
  %29 = icmp eq i64 %28, 0
  br i1 %29, label %30, label %45

30:                                               ; preds = %22
  %31 = getelementptr inbounds nuw %"class.gmx::PairlistSets", ptr %6, i32 0, i32 0
  %32 = getelementptr inbounds nuw %"struct.gmx::PairlistParams", ptr %31, i32 0, i32 4
  %33 = load i8, ptr %32, align 8, !tbaa !157, !range !47, !noundef !48
  %34 = trunc i8 %33 to i1
  br i1 %34, label %43, label %35

35:                                               ; preds = %30
  %36 = load i32, ptr %5, align 4, !tbaa !59
  %37 = getelementptr inbounds nuw %"class.gmx::PairlistSets", ptr %6, i32 0, i32 0
  %38 = getelementptr inbounds nuw %"struct.gmx::PairlistParams", ptr %37, i32 0, i32 6
  %39 = load i32, ptr %38, align 4, !tbaa !156
  %40 = mul nsw i32 2, %39
  %41 = srem i32 %36, %40
  %42 = icmp eq i32 %41, 0
  br label %43

43:                                               ; preds = %35, %30
  %44 = phi i1 [ true, %30 ], [ %42, %35 ]
  br label %45

45:                                               ; preds = %43, %22, %16, %13, %2
  %46 = phi i1 [ false, %22 ], [ false, %16 ], [ false, %13 ], [ false, %2 ], [ %44, %43 ]
  call void @llvm.lifetime.end.p0(i64 4, ptr %5) #17
  ret i1 %46
}

; Function Attrs: mustprogress nounwind uwtable
define linkonce_odr noundef ptr @_ZNKSt10unique_ptrIN3gmx12PairlistSetsESt14default_deleteIS1_EEptEv(ptr noundef nonnull align 8 dereferenceable(8) %0) #1 comdat align 2 {
  %2 = alloca ptr, align 8
  store ptr %0, ptr %2, align 8, !tbaa !131
  %3 = load ptr, ptr %2, align 8
  %4 = call noundef ptr @_ZNKSt10unique_ptrIN3gmx12PairlistSetsESt14default_deleteIS1_EE3getEv(ptr noundef nonnull align 8 dereferenceable(8) %3) #17
  ret ptr %4
}

; Function Attrs: mustprogress uwtable
define noundef zeroext i1 @_ZNK3gmx18nonbonded_verlet_t23isDynamicPruningStepGpuEl(ptr noundef nonnull align 8 dereferenceable(64) %0, i64 noundef %1) #0 align 2 {
  %3 = alloca ptr, align 8
  %4 = alloca i64, align 8
  store ptr %0, ptr %3, align 8, !tbaa !4
  store i64 %1, ptr %4, align 8, !tbaa !123
  %5 = load ptr, ptr %3, align 8
  %6 = getelementptr inbounds nuw %"struct.gmx::nonbonded_verlet_t", ptr %5, i32 0, i32 0
  %7 = call noundef ptr @_ZNKSt10unique_ptrIN3gmx12PairlistSetsESt14default_deleteIS1_EEptEv(ptr noundef nonnull align 8 dereferenceable(8) %6) #17
  %8 = load i64, ptr %4, align 8, !tbaa !123
  %9 = call noundef zeroext i1 @_ZNK3gmx12PairlistSets23isDynamicPruningStepGpuEl(ptr noundef nonnull align 8 dereferenceable(64) %7, i64 noundef %8)
  ret i1 %9
}