; Function Attrs: mustprogress nofree norecurse nosync nounwind willreturn memory(read, inaccessiblemem: none) uwtable
define noundef zeroext i1 @_ZNK3gmx18nonbonded_verlet_t23isDynamicPruningStepGpuEl(ptr noundef nonnull readonly align 8 captures(none) dereferenceable(64) %0, i64 noundef %1) local_unnamed_addr #0 align 2 {
  %3 = load ptr, ptr %0, align 8, !tbaa !66
  %4 = getelementptr inbounds nuw i8, ptr %3, i64 56
  %5 = load i64, ptr %4, align 8, !tbaa !80
  %6 = sub nsw i64 %1, %5
  %7 = trunc i64 %6 to i32
  %8 = getelementptr inbounds nuw i8, ptr %3, i64 17
  %9 = load i8, ptr %8, align 1, !tbaa !68, !range !41, !noundef !42
  %10 = trunc nuw i8 %9 to i1
  %11 = icmp sgt i32 %7, 0
  %or.cond.i = and i1 %11, %10
  %12 = getelementptr inbounds nuw i8, ptr %3, i64 32
  %13 = load i32, ptr %12, align 8
  %14 = icmp sgt i32 %13, %7
  %or.cond8.i = select i1 %or.cond.i, i1 %14, i1 false
  br i1 %or.cond8.i, label %15, label %_ZNK3gmx12PairlistSets23isDynamicPruningStepGpuEl.exit

15:                                               ; preds = %2
  %16 = getelementptr inbounds nuw i8, ptr %3, i64 20
  %17 = load i32, ptr %16, align 4, !tbaa !82
  %18 = sext i32 %17 to i64
  %19 = srem i64 %1, %18
  %20 = icmp eq i64 %19, 0
  br i1 %20, label %21, label %_ZNK3gmx12PairlistSets23isDynamicPruningStepGpuEl.exit

21:                                               ; preds = %15
  %22 = getelementptr inbounds nuw i8, ptr %3, i64 16
  %23 = load i8, ptr %22, align 8, !tbaa !83, !range !41, !noundef !42
  %24 = trunc nuw i8 %23 to i1
  br i1 %24, label %_ZNK3gmx12PairlistSets23isDynamicPruningStepGpuEl.exit, label %25

25:                                               ; preds = %21
  %26 = shl nsw i32 %17, 1
  %27 = srem i32 %7, %26
  %28 = icmp eq i32 %27, 0
  br label %_ZNK3gmx12PairlistSets23isDynamicPruningStepGpuEl.exit

_ZNK3gmx12PairlistSets23isDynamicPruningStepGpuEl.exit: ; preds = %2, %15, %21, %25
  %29 = phi i1 [ false, %15 ], [ false, %2 ], [ true, %21 ], [ %28, %25 ]
  ret i1 %29
}